target datalayout = "e-m:e-p270:32:32-p271:32:32-p272:64:64-i64:64-i128:128-f80:128-n8:16:32:64-S128"
target triple = "x86_64-pc-linux-gnu"

%struct._VAConfigAttrib = type { i32, i32 }
%struct.AVCodecContext = type { ptr, i32, i32, ptr, i32, i32, ptr, ptr, ptr, i64, i32, i32, ptr, i32, %struct.AVRational, %struct.AVRational, %struct.AVRational, i32, i32, i32, i32, i32, %struct.AVRational, i32, i32, i32, i32, i32, i32, i32, i32, i32, i32, i32, ptr, ptr, i32, float, float, float, float, float, float, float, float, float, i32, i32, i32, i32, i32, i32, i32, i32, i32, i32, i32, i32, ptr, ptr, ptr, i32, i32, i32, i32, i32, i32, i32, i32, i32, i32, %struct.AVChannelLayout, i32, i32, i32, i32, i32, i32, i32, i32, ptr, i32, i32, i32, float, float, i32, i32, i32, i32, i32, ptr, i64, i64, float, float, i32, i32, ptr, ptr, i32, i32, i32, i32, i32, ptr, ptr, ptr, ptr, i32, i32, [8 x i64], i32, i32, i32, i32, i32, i32, i32, ptr, ptr, i32, i32, i32, i32, i32, i32, i32, i32, i32, i32, ptr, ptr, i32, i32, ptr, ptr, ptr, ptr, i32, i32, i64, i32, i32, i64, ptr, i64, ptr, i32, ptr, i32 }
%struct.AVRational = type { i32, i32 }
%struct.AVChannelLayout = type { i32, i32, %union.anon.1, ptr }
%union.anon.1 = type { i64 }
%struct.VAAPIEncodeContext = type { %struct.FFHWBaseEncodeContext, ptr, i32, i32, i32, i32, i32, i32, ptr, ptr, i32, i32, i32, i32, i32, i32, [4 x %struct._VAConfigAttrib], i32, i32, i32, ptr, ptr, [4 x i32], [4 x ptr], [4 x i64], i32, %struct._VAEncMiscParameterRateControl, %struct._VAEncMiscParameterHRD, %struct._VAEncMiscParameterFrameRate, %struct._VAEncMiscParameterBufferMaxFrameSize, %struct._VAEncMiscParameterBufferQualityLevel, ptr, ptr, i32, i32, i32, i32, i32, i32, [20 x i32], [22 x i32], [21 x i32], [23 x i32], i32, i32, ptr, i32, i32 }
%struct.FFHWBaseEncodeContext = type { ptr, ptr, ptr, i32, i32, i32, i32, i32, i32, ptr, ptr, ptr, ptr, ptr, ptr, ptr, ptr, [2 x ptr], i32, i64, i64, i64, i64, i64, i64, i64, [112 x i64], i32, i32, i32, i32, i32, i32, i32, i32, i32, i32, i32, i32, i32, i32, i32, i32, ptr, i32, ptr, i32, ptr }
%struct._VAEncMiscParameterRateControl = type { i32, i32, i32, i32, i32, i32, %union.anon.2, i32, i32, i32, i32, [4 x i32] }
%union.anon.2 = type { %struct.anon }
%struct.anon = type { i32 }
%struct._VAEncMiscParameterHRD = type { i32, i32, [4 x i32] }
%struct._VAEncMiscParameterFrameRate = type { i32, %union.anon.3, [4 x i32] }
%union.anon.3 = type { %struct.anon.4 }
%struct.anon.4 = type { i32 }
%struct._VAEncMiscParameterBufferMaxFrameSize = type { i32, i32, [4 x i32] }
%struct._VAEncMiscParameterBufferQualityLevel = type { i32, [4 x i32] }
%struct.VAAPIEncodeAV1Context = type { %struct.VAAPIEncodeContext, %struct.AV1RawOBU, %struct.AV1RawOBU, [4 x %struct.AV1RawOBU], i32, ptr, %struct.CodedBitstreamFragment, %union._VAConfigAttribValEncAV1, %union._VAConfigAttribValEncAV1Ext1, %union._VAConfigAttribValEncAV1Ext2, [1024 x i8], i64, [1024 x i8], i64, i8, i8, i32, i32, i32, i32, i32, i32, [64 x i8], [64 x i8], i32, i32, i32, i32, i32, i32, i32, i32, i32, i32, i32, i32, i32, i32, i32, i32, i32 }
%struct.AV1RawOBU = type { %struct.AV1RawOBUHeader, i64, %union.anon.5 }
%struct.AV1RawOBUHeader = type { i8, i8, i8, i8, i8, i8, i8, i8 }
%union.anon.5 = type { %struct.AV1RawMetadata }
%struct.AV1RawMetadata = type { i64, %union.anon.6 }
%union.anon.6 = type { %struct.AV1RawMetadataITUTT35, [2800 x i8] }
%struct.AV1RawMetadataITUTT35 = type { i8, i8, ptr, ptr, i64 }
%struct.CodedBitstreamFragment = type { ptr, i64, i64, ptr, i32, i32, ptr }
%union._VAConfigAttribValEncAV1 = type { %struct.anon.7 }
%struct.anon.7 = type { i32 }
%union._VAConfigAttribValEncAV1Ext1 = type { %struct.anon.8 }
%struct.anon.8 = type { i32 }
%union._VAConfigAttribValEncAV1Ext2 = type { %struct.anon.9 }
%struct.anon.9 = type { i32 }
%struct.CodedBitstreamContext = type { ptr, ptr, ptr, ptr, i32, i32, i32, ptr, ptr, ptr, ptr, i64 }
%struct.VAAPIEncodeRCMode = type { i32, ptr, i32, i32, i32, i32, i32, i32 }

; Function Attrs: alwaysinline nounwind willreturn memory(none) uwtable
define internal i32 @av_clip_c(i32 noundef %0, i32 noundef %1, i32 noundef %2) #4 {
  %4 = alloca i32, align 4
  %5 = alloca i32, align 4
  %6 = alloca i32, align 4
  %7 = alloca i32, align 4
  store i32 %0, ptr %5, align 4, !tbaa !64
  store i32 %1, ptr %6, align 4, !tbaa !64
  store i32 %2, ptr %7, align 4, !tbaa !64
  %8 = load i32, ptr %5, align 4, !tbaa !64
  %9 = load i32, ptr %6, align 4, !tbaa !64
  %10 = icmp slt i32 %8, %9
  br i1 %10, label %11, label %13

11:                                               ; preds = %3
  %12 = load i32, ptr %6, align 4, !tbaa !64
  store i32 %12, ptr %4, align 4
  br label %21

13:                                               ; preds = %3
  %14 = load i32, ptr %5, align 4, !tbaa !64
  %15 = load i32, ptr %7, align 4, !tbaa !64
  %16 = icmp sgt i32 %14, %15
  br i1 %16, label %17, label %19

17:                                               ; preds = %13
  %18 = load i32, ptr %7, align 4, !tbaa !64
  store i32 %18, ptr %4, align 4
  br label %21

19:                                               ; preds = %13
  %20 = load i32, ptr %5, align 4, !tbaa !64
  store i32 %20, ptr %4, align 4
  br label %21

21:                                               ; preds = %19, %17, %11
  %22 = load i32, ptr %4, align 4
  ret i32 %22
}

; Function Attrs: cold nounwind optsize uwtable
define internal i32 @vaapi_encode_av1_configure(ptr noundef %0) #0 {
  %2 = alloca i32, align 4
  %3 = alloca ptr, align 8
  %4 = alloca ptr, align 8
  %5 = alloca ptr, align 8
  %6 = alloca i32, align 4
  %7 = alloca i32, align 4
  store ptr %0, ptr %3, align 8, !tbaa !4
  call void @llvm.lifetime.start.p0(i64 8, ptr %4) #12
  %8 = load ptr, ptr %3, align 8, !tbaa !4
  %9 = getelementptr inbounds nuw %struct.AVCodecContext, ptr %8, i32 0, i32 6
  %10 = load ptr, ptr %9, align 8, !tbaa !9
  store ptr %10, ptr %4, align 8, !tbaa !29
  call void @llvm.lifetime.start.p0(i64 8, ptr %5) #12
  %11 = load ptr, ptr %3, align 8, !tbaa !4
  %12 = getelementptr inbounds nuw %struct.AVCodecContext, ptr %11, i32 0, i32 6
  %13 = load ptr, ptr %12, align 8, !tbaa !9
  store ptr %13, ptr %5, align 8, !tbaa !31
  call void @llvm.lifetime.start.p0(i64 4, ptr %6) #12
  %14 = load ptr, ptr %5, align 8, !tbaa !31
  %15 = getelementptr inbounds nuw %struct.VAAPIEncodeAV1Context, ptr %14, i32 0, i32 5
  %16 = load ptr, ptr %3, align 8, !tbaa !4
  %17 = call i32 @ff_cbs_init(ptr noundef %15, i32 noundef 225, ptr noundef %16)
  store i32 %17, ptr %6, align 4, !tbaa !64
  %18 = load i32, ptr %6, align 4, !tbaa !64
  %19 = icmp slt i32 %18, 0
  br i1 %19, label %20, label %22

20:                                               ; preds = %1
  %21 = load i32, ptr %6, align 4, !tbaa !64
  store i32 %21, ptr %2, align 4
  store i32 1, ptr %7, align 4
  br label %129

22:                                               ; preds = %1
  %23 = load ptr, ptr %5, align 8, !tbaa !31
  %24 = getelementptr inbounds nuw %struct.VAAPIEncodeAV1Context, ptr %23, i32 0, i32 5
  %25 = load ptr, ptr %24, align 8, !tbaa !74
  %26 = getelementptr inbounds nuw %struct.CodedBitstreamContext, ptr %25, i32 0, i32 5
  store i32 1, ptr %26, align 4, !tbaa !105
  %27 = load ptr, ptr %5, align 8, !tbaa !31
  %28 = getelementptr inbounds nuw %struct.VAAPIEncodeAV1Context, ptr %27, i32 0, i32 5
  %29 = load ptr, ptr %28, align 8, !tbaa !74
  %30 = getelementptr inbounds nuw %struct.CodedBitstreamContext, ptr %29, i32 0, i32 6
  store i32 48, ptr %30, align 8, !tbaa !106
  %31 = load ptr, ptr %4, align 8, !tbaa !29
  %32 = load ptr, ptr %5, align 8, !tbaa !31
  %33 = getelementptr inbounds nuw %struct.VAAPIEncodeAV1Context, ptr %32, i32 0, i32 5
  %34 = load ptr, ptr %33, align 8, !tbaa !74
  %35 = getelementptr inbounds nuw %struct.CodedBitstreamContext, ptr %34, i32 0, i32 7
  store ptr %31, ptr %35, align 8, !tbaa !107
  %36 = load ptr, ptr %5, align 8, !tbaa !31
  %37 = getelementptr inbounds nuw %struct.VAAPIEncodeAV1Context, ptr %36, i32 0, i32 5
  %38 = load ptr, ptr %37, align 8, !tbaa !74
  %39 = getelementptr inbounds nuw %struct.CodedBitstreamContext, ptr %38, i32 0, i32 9
  store ptr @vaapi_encode_av1_trace_write_log, ptr %39, align 8, !tbaa !108
  %40 = load ptr, ptr %4, align 8, !tbaa !29
  %41 = getelementptr inbounds nuw %struct.VAAPIEncodeContext, ptr %40, i32 0, i32 9
  %42 = load ptr, ptr %41, align 8, !tbaa !109
  %43 = getelementptr inbounds nuw %struct.VAAPIEncodeRCMode, ptr %42, i32 0, i32 6
  %44 = load i32, ptr %43, align 8, !tbaa !110
  %45 = icmp ne i32 %44, 0
  br i1 %45, label %46, label %119

46:                                               ; preds = %22
  %47 = load ptr, ptr %4, align 8, !tbaa !29
  %48 = getelementptr inbounds nuw %struct.VAAPIEncodeContext, ptr %47, i32 0, i32 10
  %49 = load i32, ptr %48, align 8, !tbaa !112
  %50 = call i32 @av_clip_c(i32 noundef %49, i32 noundef 0, i32 noundef 255) #13
  %51 = load ptr, ptr %5, align 8, !tbaa !31
  %52 = getelementptr inbounds nuw %struct.VAAPIEncodeAV1Context, ptr %51, i32 0, i32 29
  store i32 %50, ptr %52, align 8, !tbaa !113
  %53 = load ptr, ptr %3, align 8, !tbaa !4
  %54 = getelementptr inbounds nuw %struct.AVCodecContext, ptr %53, i32 0, i32 39
  %55 = load float, ptr %54, align 4, !tbaa !114
  %56 = fpext nsz float %55 to double
  %57 = call nsz double @llvm.fabs.f64(double %56)
  %58 = fcmp nsz ogt double %57, 0.000000e+00
  br i1 %58, label %59, label %79

59:                                               ; preds = %46
  %60 = load ptr, ptr %3, align 8, !tbaa !4
  %61 = getelementptr inbounds nuw %struct.AVCodecContext, ptr %60, i32 0, i32 39
  %62 = load float, ptr %61, align 4, !tbaa !114
  %63 = fpext nsz float %62 to double
  %64 = call nsz double @llvm.fabs.f64(double %63)
  %65 = load ptr, ptr %5, align 8, !tbaa !31
  %66 = getelementptr inbounds nuw %struct.VAAPIEncodeAV1Context, ptr %65, i32 0, i32 29
  %67 = load i32, ptr %66, align 8, !tbaa !113
  %68 = sitofp i32 %67 to double
  %69 = load ptr, ptr %3, align 8, !tbaa !4
  %70 = getelementptr inbounds nuw %struct.AVCodecContext, ptr %69, i32 0, i32 40
  %71 = load float, ptr %70, align 8, !tbaa !115
  %72 = fpext nsz float %71 to double
  %73 = call nsz double @llvm.fmuladd.f64(double %64, double %68, double %72)
  %74 = fadd nsz double %73, 5.000000e-01
  %75 = fptosi double %74 to i32
  %76 = call i32 @av_clip_c(i32 noundef %75, i32 noundef 0, i32 noundef 255) #13
  %77 = load ptr, ptr %5, align 8, !tbaa !31
  %78 = getelementptr inbounds nuw %struct.VAAPIEncodeAV1Context, ptr %77, i32 0, i32 28
  store i32 %76, ptr %78, align 4, !tbaa !116
  br label %85

79:                                               ; preds = %46
  %80 = load ptr, ptr %5, align 8, !tbaa !31
  %81 = getelementptr inbounds nuw %struct.VAAPIEncodeAV1Context, ptr %80, i32 0, i32 29
  %82 = load i32, ptr %81, align 8, !tbaa !113
  %83 = load ptr, ptr %5, align 8, !tbaa !31
  %84 = getelementptr inbounds nuw %struct.VAAPIEncodeAV1Context, ptr %83, i32 0, i32 28
  store i32 %82, ptr %84, align 4, !tbaa !116
  br label %85

85:                                               ; preds = %79, %59
  %86 = load ptr, ptr %3, align 8, !tbaa !4
  %87 = getelementptr inbounds nuw %struct.AVCodecContext, ptr %86, i32 0, i32 37
  %88 = load float, ptr %87, align 4, !tbaa !117
  %89 = fpext nsz float %88 to double
  %90 = call nsz double @llvm.fabs.f64(double %89)
  %91 = fcmp nsz ogt double %90, 0.000000e+00
  br i1 %91, label %92, label %112

92:                                               ; preds = %85
  %93 = load ptr, ptr %3, align 8, !tbaa !4
  %94 = getelementptr inbounds nuw %struct.AVCodecContext, ptr %93, i32 0, i32 37
  %95 = load float, ptr %94, align 4, !tbaa !117
  %96 = fpext nsz float %95 to double
  %97 = call nsz double @llvm.fabs.f64(double %96)
  %98 = load ptr, ptr %5, align 8, !tbaa !31
  %99 = getelementptr inbounds nuw %struct.VAAPIEncodeAV1Context, ptr %98, i32 0, i32 29
  %100 = load i32, ptr %99, align 8, !tbaa !113
  %101 = sitofp i32 %100 to double
  %102 = load ptr, ptr %3, align 8, !tbaa !4
  %103 = getelementptr inbounds nuw %struct.AVCodecContext, ptr %102, i32 0, i32 38
  %104 = load float, ptr %103, align 8, !tbaa !118
  %105 = fpext nsz float %104 to double
  %106 = call nsz double @llvm.fmuladd.f64(double %97, double %101, double %105)
  %107 = fadd nsz double %106, 5.000000e-01
  %108 = fptosi double %107 to i32
  %109 = call i32 @av_clip_c(i32 noundef %108, i32 noundef 0, i32 noundef 255) #13
  %110 = load ptr, ptr %5, align 8, !tbaa !31
  %111 = getelementptr inbounds nuw %struct.VAAPIEncodeAV1Context, ptr %110, i32 0, i32 30
  store i32 %109, ptr %111, align 4, !tbaa !119
  br label %118

112:                                              ; preds = %85
  %113 = load ptr, ptr %5, align 8, !tbaa !31
  %114 = getelementptr inbounds nuw %struct.VAAPIEncodeAV1Context, ptr %113, i32 0, i32 29
  %115 = load i32, ptr %114, align 8, !tbaa !113
  %116 = load ptr, ptr %5, align 8, !tbaa !31
  %117 = getelementptr inbounds nuw %struct.VAAPIEncodeAV1Context, ptr %116, i32 0, i32 30
  store i32 %115, ptr %117, align 4, !tbaa !119
  br label %118

118:                                              ; preds = %112, %92
  br label %126

119:                                              ; preds = %22
  %120 = load ptr, ptr %5, align 8, !tbaa !31
  %121 = getelementptr inbounds nuw %struct.VAAPIEncodeAV1Context, ptr %120, i32 0, i32 30
  store i32 128, ptr %121, align 4, !tbaa !119
  %122 = load ptr, ptr %5, align 8, !tbaa !31
  %123 = getelementptr inbounds nuw %struct.VAAPIEncodeAV1Context, ptr %122, i32 0, i32 29
  store i32 128, ptr %123, align 8, !tbaa !113
  %124 = load ptr, ptr %5, align 8, !tbaa !31
  %125 = getelementptr inbounds nuw %struct.VAAPIEncodeAV1Context, ptr %124, i32 0, i32 28
  store i32 128, ptr %125, align 4, !tbaa !116
  br label %126

126:                                              ; preds = %119, %118
  %127 = load ptr, ptr %4, align 8, !tbaa !29
  %128 = getelementptr inbounds nuw %struct.VAAPIEncodeContext, ptr %127, i32 0, i32 44
  store i32 255, ptr %128, align 4, !tbaa !120
  store i32 0, ptr %2, align 4
  store i32 1, ptr %7, align 4
  br label %129

129:                                              ; preds = %126, %20
  call void @llvm.lifetime.end.p0(i64 4, ptr %6) #12
  call void @llvm.lifetime.end.p0(i64 8, ptr %5) #12
  call void @llvm.lifetime.end.p0(i64 8, ptr %4) #12
  %130 = load i32, ptr %2, align 4
  ret i32 %130
}