; Function Attrs: cold nounwind optsize uwtable
define internal range(i32 -2147483648, 1) i32 @vaapi_encode_av1_configure(ptr noundef %0) #0 {
  %2 = getelementptr inbounds nuw i8, ptr %0, i64 32
  %3 = load ptr, ptr %2, align 8, !tbaa !4
  %4 = getelementptr inbounds nuw i8, ptr %3, i64 19120
  %5 = tail call i32 @ff_cbs_init(ptr noundef nonnull %4, i32 noundef 225, ptr noundef %0) #14
  %6 = icmp slt i32 %5, 0
  br i1 %6, label %61, label %7

7:                                                ; preds = %1
  %8 = load ptr, ptr %4, align 8, !tbaa !67
  %9 = getelementptr inbounds nuw i8, ptr %8, i64 36
  store i32 1, ptr %9, align 4, !tbaa !96
  %10 = getelementptr inbounds nuw i8, ptr %8, i64 40
  store i32 48, ptr %10, align 8, !tbaa !97
  %11 = getelementptr inbounds nuw i8, ptr %8, i64 48
  store ptr %3, ptr %11, align 8, !tbaa !98
  %12 = getelementptr inbounds nuw i8, ptr %8, i64 64
  store ptr @vaapi_encode_av1_trace_write_log, ptr %12, align 8, !tbaa !99
  %13 = getelementptr inbounds nuw i8, ptr %3, i64 1232
  %14 = load ptr, ptr %13, align 8, !tbaa !100
  %15 = getelementptr inbounds nuw i8, ptr %14, i64 32
  %16 = load i32, ptr %15, align 8, !tbaa !101
  %.not = icmp eq i32 %16, 0
  br i1 %.not, label %55, label %17

17:                                               ; preds = %7
  %18 = getelementptr inbounds nuw i8, ptr %3, i64 1240
  %19 = load i32, ptr %18, align 8, !tbaa !103
  %20 = tail call i32 @llvm.smax.i32(i32 %19, i32 0)
  %21 = tail call i32 @llvm.umin.i32(i32 %20, i32 255)
  %22 = getelementptr inbounds nuw i8, ptr %3, i64 21432
  store i32 %21, ptr %22, align 8, !tbaa !104
  %23 = getelementptr inbounds nuw i8, ptr %0, i64 212
  %24 = load float, ptr %23, align 4, !tbaa !105
  %25 = fcmp nsz ueq float %24, 0.000000e+00
  br i1 %25, label %38, label %26

26:                                               ; preds = %17
  %27 = tail call nsz float @llvm.fabs.f32(float %24)
  %28 = fpext float %27 to double
  %29 = uitofp nneg i32 %21 to double
  %30 = getelementptr inbounds nuw i8, ptr %0, i64 216
  %31 = load float, ptr %30, align 8, !tbaa !106
  %32 = fpext nsz float %31 to double
  %33 = tail call nsz double @llvm.fmuladd.f64(double %28, double %29, double %32)
  %34 = fadd nsz double %33, 5.000000e-01
  %35 = fptosi double %34 to i32
  %36 = tail call i32 @llvm.smax.i32(i32 %35, i32 0)
  %37 = tail call i32 @llvm.umin.i32(i32 %36, i32 255)
  br label %38

38:                                               ; preds = %17, %26
  %.0.i36.sink = phi i32 [ %37, %26 ], [ %21, %17 ]
  %39 = getelementptr inbounds nuw i8, ptr %3, i64 21428
  store i32 %.0.i36.sink, ptr %39, align 4, !tbaa !107
  %40 = getelementptr inbounds nuw i8, ptr %0, i64 204
  %41 = load float, ptr %40, align 4, !tbaa !108
  %42 = fcmp nsz ueq float %41, 0.000000e+00
  br i1 %42, label %58, label %43

43:                                               ; preds = %38
  %44 = tail call nsz float @llvm.fabs.f32(float %41)
  %45 = fpext float %44 to double
  %46 = uitofp nneg i32 %21 to double
  %47 = getelementptr inbounds nuw i8, ptr %0, i64 208
  %48 = load float, ptr %47, align 8, !tbaa !109
  %49 = fpext nsz float %48 to double
  %50 = tail call nsz double @llvm.fmuladd.f64(double %45, double %46, double %49)
  %51 = fadd nsz double %50, 5.000000e-01
  %52 = fptosi double %51 to i32
  %53 = tail call i32 @llvm.smax.i32(i32 %52, i32 0)
  %54 = tail call i32 @llvm.umin.i32(i32 %53, i32 255)
  br label %58

55:                                               ; preds = %7
  %56 = getelementptr inbounds nuw i8, ptr %3, i64 21436
  store i32 128, ptr %56, align 4, !tbaa !110
  %57 = getelementptr inbounds nuw i8, ptr %3, i64 21432
  store i32 128, ptr %57, align 8, !tbaa !104
  br label %58

58:                                               ; preds = %38, %43, %55
  %.sink40 = phi i64 [ 21436, %43 ], [ 21428, %55 ], [ 21436, %38 ]
  %.sink = phi i32 [ %54, %43 ], [ 128, %55 ], [ %21, %38 ]
  %59 = getelementptr inbounds nuw i8, ptr %3, i64 %.sink40
  store i32 %.sink, ptr %59, align 4, !tbaa !111
  %60 = getelementptr inbounds nuw i8, ptr %3, i64 1956
  store i32 255, ptr %60, align 4, !tbaa !112
  br label %61

61:                                               ; preds = %1, %58
  %.0 = phi i32 [ 0, %58 ], [ %5, %1 ]
  ret i32 %.0
}